; Function Attrs: mustprogress uwtable
define dso_local void @_ZN3igl4slim36update_weights_and_closest_rotationsERNS_8SLIMDataERN5Eigen6MatrixIdLin1ELin1ELi0ELin1ELin1EEE(ptr noundef nonnull align 8 dereferenceable(808) %0, ptr noundef nonnull readonly align 8 captures(none) dereferenceable(24) %1) local_unnamed_addr #2 {
  tail call void @_ZN3igl4slim17compute_jacobiansERNS_8SLIMDataERKN5Eigen6MatrixIdLin1ELin1ELi0ELin1ELin1EEE(ptr noundef nonnull align 8 dereferenceable(808) %0, ptr noundef nonnull align 8 dereferenceable(24) %1)
  %3 = getelementptr inbounds nuw i8, ptr %0, i64 256
  %4 = getelementptr inbounds nuw i8, ptr %0, i64 48
  %5 = load i32, ptr %4, align 8, !tbaa !102
  %6 = getelementptr inbounds nuw i8, ptr %0, i64 104
  %7 = load double, ptr %6, align 8, !tbaa !119
  %8 = getelementptr inbounds nuw i8, ptr %0, i64 280
  %9 = getelementptr inbounds nuw i8, ptr %0, i64 232
  tail call void @_ZN3igl56slim_update_weights_and_closest_rotations_with_jacobiansERKN5Eigen6MatrixIdLin1ELin1ELi0ELin1ELin1EEENS_17MappingEnergyTypeEdRS2_S6_(ptr noundef nonnull align 8 dereferenceable(24) %3, i32 noundef %5, double noundef %7, ptr noundef nonnull align 8 dereferenceable(24) %8, ptr noundef nonnull align 8 dereferenceable(24) %9)
  ret void
}